target datalayout = "e-m:e-p270:32:32-p271:32:32-p272:64:64-i64:64-i128:128-f80:128-n8:16:32:64-S128"
target triple = "x86_64-pc-linux-gnu"

%struct.RelMapFile = type { i32, i32, [64 x %struct.RelMapping], i32 }
%struct.RelMapping = type { i32, i32 }

@active_shared_updates = internal global %struct.RelMapFile zeroinitializer, align 4
@shared_map = internal global %struct.RelMapFile zeroinitializer, align 4
@active_local_updates = internal global %struct.RelMapFile zeroinitializer, align 4
@local_map = internal global %struct.RelMapFile zeroinitializer, align 4

; Function Attrs: nounwind uwtable
define dso_local i32 @RelationMapOidToFilenumber(i32 noundef %0, i1 noundef zeroext %1) #0 {
  %3 = alloca i32, align 4
  %4 = alloca i32, align 4
  %5 = alloca i8, align 1
  %6 = alloca ptr, align 8
  %7 = alloca i32, align 4
  %8 = alloca i32, align 4
  store i32 %0, ptr %4, align 4
  %9 = zext i1 %1 to i8
  store i8 %9, ptr %5, align 1
  call void @llvm.lifetime.start.p0(i64 8, ptr %6) #8
  call void @llvm.lifetime.start.p0(i64 4, ptr %7) #8
  %10 = load i8, ptr %5, align 1, !range !4, !noundef !5
  %11 = trunc i8 %10 to i1
  br i1 %11, label %12, label %71

12:                                               ; preds = %2
  store ptr @active_shared_updates, ptr %6, align 8
  store i32 0, ptr %7, align 4
  br label %13

13:                                               ; preds = %38, %12
  %14 = load i32, ptr %7, align 4
  %15 = load ptr, ptr %6, align 8
  %16 = getelementptr inbounds nuw %struct.RelMapFile, ptr %15, i32 0, i32 1
  %17 = load i32, ptr %16, align 4
  %18 = icmp slt i32 %14, %17
  br i1 %18, label %19, label %41

19:                                               ; preds = %13
  %20 = load i32, ptr %4, align 4
  %21 = load ptr, ptr %6, align 8
  %22 = getelementptr inbounds nuw %struct.RelMapFile, ptr %21, i32 0, i32 2
  %23 = load i32, ptr %7, align 4
  %24 = sext i32 %23 to i64
  %25 = getelementptr inbounds [64 x %struct.RelMapping], ptr %22, i64 0, i64 %24
  %26 = getelementptr inbounds nuw %struct.RelMapping, ptr %25, i32 0, i32 0
  %27 = load i32, ptr %26, align 4
  %28 = icmp eq i32 %20, %27
  br i1 %28, label %29, label %37

29:                                               ; preds = %19
  %30 = load ptr, ptr %6, align 8
  %31 = getelementptr inbounds nuw %struct.RelMapFile, ptr %30, i32 0, i32 2
  %32 = load i32, ptr %7, align 4
  %33 = sext i32 %32 to i64
  %34 = getelementptr inbounds [64 x %struct.RelMapping], ptr %31, i64 0, i64 %33
  %35 = getelementptr inbounds nuw %struct.RelMapping, ptr %34, i32 0, i32 1
  %36 = load i32, ptr %35, align 4
  store i32 %36, ptr %3, align 4
  store i32 1, ptr %8, align 4
  br label %131

37:                                               ; preds = %19
  br label %38

38:                                               ; preds = %37
  %39 = load i32, ptr %7, align 4
  %40 = add i32 %39, 1
  store i32 %40, ptr %7, align 4
  br label %13, !llvm.loop !6

41:                                               ; preds = %13
  store ptr @shared_map, ptr %6, align 8
  store i32 0, ptr %7, align 4
  br label %42

42:                                               ; preds = %67, %41
  %43 = load i32, ptr %7, align 4
  %44 = load ptr, ptr %6, align 8
  %45 = getelementptr inbounds nuw %struct.RelMapFile, ptr %44, i32 0, i32 1
  %46 = load i32, ptr %45, align 4
  %47 = icmp slt i32 %43, %46
  br i1 %47, label %48, label %70

48:                                               ; preds = %42
  %49 = load i32, ptr %4, align 4
  %50 = load ptr, ptr %6, align 8
  %51 = getelementptr inbounds nuw %struct.RelMapFile, ptr %50, i32 0, i32 2
  %52 = load i32, ptr %7, align 4
  %53 = sext i32 %52 to i64
  %54 = getelementptr inbounds [64 x %struct.RelMapping], ptr %51, i64 0, i64 %53
  %55 = getelementptr inbounds nuw %struct.RelMapping, ptr %54, i32 0, i32 0
  %56 = load i32, ptr %55, align 4
  %57 = icmp eq i32 %49, %56
  br i1 %57, label %58, label %66

58:                                               ; preds = %48
  %59 = load ptr, ptr %6, align 8
  %60 = getelementptr inbounds nuw %struct.RelMapFile, ptr %59, i32 0, i32 2
  %61 = load i32, ptr %7, align 4
  %62 = sext i32 %61 to i64
  %63 = getelementptr inbounds [64 x %struct.RelMapping], ptr %60, i64 0, i64 %62
  %64 = getelementptr inbounds nuw %struct.RelMapping, ptr %63, i32 0, i32 1
  %65 = load i32, ptr %64, align 4
  store i32 %65, ptr %3, align 4
  store i32 1, ptr %8, align 4
  br label %131

66:                                               ; preds = %48
  br label %67

67:                                               ; preds = %66
  %68 = load i32, ptr %7, align 4
  %69 = add i32 %68, 1
  store i32 %69, ptr %7, align 4
  br label %42, !llvm.loop !8

70:                                               ; preds = %42
  br label %130

71:                                               ; preds = %2
  store ptr @active_local_updates, ptr %6, align 8
  store i32 0, ptr %7, align 4
  br label %72

72:                                               ; preds = %97, %71
  %73 = load i32, ptr %7, align 4
  %74 = load ptr, ptr %6, align 8
  %75 = getelementptr inbounds nuw %struct.RelMapFile, ptr %74, i32 0, i32 1
  %76 = load i32, ptr %75, align 4
  %77 = icmp slt i32 %73, %76
  br i1 %77, label %78, label %100

78:                                               ; preds = %72
  %79 = load i32, ptr %4, align 4
  %80 = load ptr, ptr %6, align 8
  %81 = getelementptr inbounds nuw %struct.RelMapFile, ptr %80, i32 0, i32 2
  %82 = load i32, ptr %7, align 4
  %83 = sext i32 %82 to i64
  %84 = getelementptr inbounds [64 x %struct.RelMapping], ptr %81, i64 0, i64 %83
  %85 = getelementptr inbounds nuw %struct.RelMapping, ptr %84, i32 0, i32 0
  %86 = load i32, ptr %85, align 4
  %87 = icmp eq i32 %79, %86
  br i1 %87, label %88, label %96

88:                                               ; preds = %78
  %89 = load ptr, ptr %6, align 8
  %90 = getelementptr inbounds nuw %struct.RelMapFile, ptr %89, i32 0, i32 2
  %91 = load i32, ptr %7, align 4
  %92 = sext i32 %91 to i64
  %93 = getelementptr inbounds [64 x %struct.RelMapping], ptr %90, i64 0, i64 %92
  %94 = getelementptr inbounds nuw %struct.RelMapping, ptr %93, i32 0, i32 1
  %95 = load i32, ptr %94, align 4
  store i32 %95, ptr %3, align 4
  store i32 1, ptr %8, align 4
  br label %131

96:                                               ; preds = %78
  br label %97

97:                                               ; preds = %96
  %98 = load i32, ptr %7, align 4
  %99 = add i32 %98, 1
  store i32 %99, ptr %7, align 4
  br label %72, !llvm.loop !9

100:                                              ; preds = %72
  store ptr @local_map, ptr %6, align 8
  store i32 0, ptr %7, align 4
  br label %101

101:                                              ; preds = %126, %100
  %102 = load i32, ptr %7, align 4
  %103 = load ptr, ptr %6, align 8
  %104 = getelementptr inbounds nuw %struct.RelMapFile, ptr %103, i32 0, i32 1
  %105 = load i32, ptr %104, align 4
  %106 = icmp slt i32 %102, %105
  br i1 %106, label %107, label %129

107:                                              ; preds = %101
  %108 = load i32, ptr %4, align 4
  %109 = load ptr, ptr %6, align 8
  %110 = getelementptr inbounds nuw %struct.RelMapFile, ptr %109, i32 0, i32 2
  %111 = load i32, ptr %7, align 4
  %112 = sext i32 %111 to i64
  %113 = getelementptr inbounds [64 x %struct.RelMapping], ptr %110, i64 0, i64 %112
  %114 = getelementptr inbounds nuw %struct.RelMapping, ptr %113, i32 0, i32 0
  %115 = load i32, ptr %114, align 4
  %116 = icmp eq i32 %108, %115
  br i1 %116, label %117, label %125

117:                                              ; preds = %107
  %118 = load ptr, ptr %6, align 8
  %119 = getelementptr inbounds nuw %struct.RelMapFile, ptr %118, i32 0, i32 2
  %120 = load i32, ptr %7, align 4
  %121 = sext i32 %120 to i64
  %122 = getelementptr inbounds [64 x %struct.RelMapping], ptr %119, i64 0, i64 %121
  %123 = getelementptr inbounds nuw %struct.RelMapping, ptr %122, i32 0, i32 1
  %124 = load i32, ptr %123, align 4
  store i32 %124, ptr %3, align 4
  store i32 1, ptr %8, align 4
  br label %131

125:                                              ; preds = %107
  br label %126

126:                                              ; preds = %125
  %127 = load i32, ptr %7, align 4
  %128 = add i32 %127, 1
  store i32 %128, ptr %7, align 4
  br label %101, !llvm.loop !10

129:                                              ; preds = %101
  br label %130

130:                                              ; preds = %129, %70
  store i32 0, ptr %3, align 4
  store i32 1, ptr %8, align 4
  br label %131

131:                                              ; preds = %130, %117, %88, %58, %29
  call void @llvm.lifetime.end.p0(i64 4, ptr %7) #8
  call void @llvm.lifetime.end.p0(i64 8, ptr %6) #8
  %132 = load i32, ptr %3, align 4
  ret i32 %132
}