; Function Attrs: nofree norecurse nosync nounwind memory(read, inaccessiblemem: none) uwtable
define dso_local i32 @RelationMapOidToFilenumber(i32 noundef %0, i1 noundef zeroext %1) local_unnamed_addr #0 {
  br i1 %1, label %.preheader34, label %.preheader37

.preheader37:                                     ; preds = %2
  %3 = load i32, ptr getelementptr inbounds nuw (i8, ptr @active_local_updates, i64 4), align 4
  %4 = icmp sgt i32 %3, 0
  br i1 %4, label %.lr.ph.preheader, label %.preheader35

.lr.ph.preheader:                                 ; preds = %.preheader37
  %wide.trip.count = zext nneg i32 %3 to i64
  br label %.lr.ph

.preheader34:                                     ; preds = %2
  %5 = load i32, ptr getelementptr inbounds nuw (i8, ptr @active_shared_updates, i64 4), align 4
  %6 = icmp sgt i32 %5, 0
  br i1 %6, label %.lr.ph48.preheader, label %.preheader

.lr.ph48.preheader:                               ; preds = %.preheader34
  %wide.trip.count75 = zext nneg i32 %5 to i64
  br label %.lr.ph48

7:                                                ; preds = %.lr.ph48
  %indvars.iv.next73 = add nuw nsw i64 %indvars.iv72, 1
  %exitcond76.not = icmp eq i64 %indvars.iv.next73, %wide.trip.count75
  br i1 %exitcond76.not, label %.preheader, label %.lr.ph48, !llvm.loop !4

.preheader:                                       ; preds = %7, %.preheader34
  %8 = load i32, ptr getelementptr inbounds nuw (i8, ptr @shared_map, i64 4), align 4
  %9 = icmp sgt i32 %8, 0
  br i1 %9, label %.lr.ph51.preheader, label %.loopexit

.lr.ph51.preheader:                               ; preds = %.preheader
  %wide.trip.count80 = zext nneg i32 %8 to i64
  br label %.lr.ph51

.lr.ph48:                                         ; preds = %.lr.ph48.preheader, %7
  %indvars.iv72 = phi i64 [ 0, %.lr.ph48.preheader ], [ %indvars.iv.next73, %7 ]
  %10 = getelementptr inbounds nuw [64 x %struct.RelMapping], ptr getelementptr inbounds nuw (i8, ptr @active_shared_updates, i64 8), i64 0, i64 %indvars.iv72
  %11 = load i32, ptr %10, align 4
  %12 = icmp eq i32 %0, %11
  br i1 %12, label %.loopexit.sink.split, label %7

13:                                               ; preds = %.lr.ph51
  %indvars.iv.next78 = add nuw nsw i64 %indvars.iv77, 1
  %exitcond81.not = icmp eq i64 %indvars.iv.next78, %wide.trip.count80
  br i1 %exitcond81.not, label %.loopexit, label %.lr.ph51, !llvm.loop !6

.lr.ph51:                                         ; preds = %.lr.ph51.preheader, %13
  %indvars.iv77 = phi i64 [ 0, %.lr.ph51.preheader ], [ %indvars.iv.next78, %13 ]
  %14 = getelementptr inbounds nuw [64 x %struct.RelMapping], ptr getelementptr inbounds nuw (i8, ptr @shared_map, i64 8), i64 0, i64 %indvars.iv77
  %15 = load i32, ptr %14, align 4
  %16 = icmp eq i32 %0, %15
  br i1 %16, label %.loopexit.sink.split, label %13

17:                                               ; preds = %.lr.ph
  %indvars.iv.next = add nuw nsw i64 %indvars.iv, 1
  %exitcond.not = icmp eq i64 %indvars.iv.next, %wide.trip.count
  br i1 %exitcond.not, label %.preheader35, label %.lr.ph, !llvm.loop !7

.preheader35:                                     ; preds = %17, %.preheader37
  %18 = load i32, ptr getelementptr inbounds nuw (i8, ptr @local_map, i64 4), align 4
  %19 = icmp sgt i32 %18, 0
  br i1 %19, label %.lr.ph45.preheader, label %.loopexit

.lr.ph45.preheader:                               ; preds = %.preheader35
  %wide.trip.count70 = zext nneg i32 %18 to i64
  br label %.lr.ph45

.lr.ph:                                           ; preds = %.lr.ph.preheader, %17
  %indvars.iv = phi i64 [ 0, %.lr.ph.preheader ], [ %indvars.iv.next, %17 ]
  %20 = getelementptr inbounds nuw [64 x %struct.RelMapping], ptr getelementptr inbounds nuw (i8, ptr @active_local_updates, i64 8), i64 0, i64 %indvars.iv
  %21 = load i32, ptr %20, align 4
  %22 = icmp eq i32 %0, %21
  br i1 %22, label %.loopexit.sink.split, label %17

23:                                               ; preds = %.lr.ph45
  %indvars.iv.next68 = add nuw nsw i64 %indvars.iv67, 1
  %exitcond71.not = icmp eq i64 %indvars.iv.next68, %wide.trip.count70
  br i1 %exitcond71.not, label %.loopexit, label %.lr.ph45, !llvm.loop !8

.lr.ph45:                                         ; preds = %.lr.ph45.preheader, %23
  %indvars.iv67 = phi i64 [ 0, %.lr.ph45.preheader ], [ %indvars.iv.next68, %23 ]
  %24 = getelementptr inbounds nuw [64 x %struct.RelMapping], ptr getelementptr inbounds nuw (i8, ptr @local_map, i64 8), i64 0, i64 %indvars.iv67
  %25 = load i32, ptr %24, align 4
  %26 = icmp eq i32 %0, %25
  br i1 %26, label %.loopexit.sink.split, label %23

.loopexit.sink.split:                             ; preds = %.lr.ph, %.lr.ph45, %.lr.ph48, %.lr.ph51
  %indvars.iv67.lcssa.sink = phi i64 [ %indvars.iv77, %.lr.ph51 ], [ %indvars.iv72, %.lr.ph48 ], [ %indvars.iv67, %.lr.ph45 ], [ %indvars.iv, %.lr.ph ]
  %.sink87 = phi ptr [ getelementptr inbounds nuw (i8, ptr @shared_map, i64 8), %.lr.ph51 ], [ getelementptr inbounds nuw (i8, ptr @active_shared_updates, i64 8), %.lr.ph48 ], [ getelementptr inbounds nuw (i8, ptr @local_map, i64 8), %.lr.ph45 ], [ getelementptr inbounds nuw (i8, ptr @active_local_updates, i64 8), %.lr.ph ]
  %.idx = shl nuw nsw i64 %indvars.iv67.lcssa.sink, 3
  %.offs = or disjoint i64 %.idx, 4
  %27 = getelementptr inbounds nuw i8, ptr %.sink87, i64 %.offs
  %28 = load i32, ptr %27, align 4
  br label %.loopexit

.loopexit:                                        ; preds = %23, %13, %.loopexit.sink.split, %.preheader35, %.preheader
  %.033 = phi i32 [ 0, %.preheader ], [ 0, %.preheader35 ], [ %28, %.loopexit.sink.split ], [ 0, %13 ], [ 0, %23 ]
  ret i32 %.033
}